; Function Attrs: nounwind uwtable
define void @Gia_ManWriteSol(ptr noundef readonly captures(none) %0, ptr noundef %1) local_unnamed_addr #2 {
  %3 = tail call ptr @Extra_FileNameGeneric(ptr noundef %1) #36
  %4 = tail call i64 @strlen(ptr noundef nonnull dereferenceable(1) %3) #37
  %5 = add i64 %4, 5
  %6 = tail call noalias ptr @malloc(i64 noundef %5) #40
  %7 = tail call i32 (ptr, ptr, ...) @sprintf(ptr noundef nonnull dereferenceable(1) %6, ptr noundef nonnull dereferenceable(1) @.str.93, ptr noundef nonnull %3, ptr noundef nonnull @.str.64) #36
  %8 = tail call noalias ptr @fopen(ptr noundef nonnull %6, ptr noundef nonnull @.str.46)
  tail call void @free(ptr noundef %3) #36
  %9 = icmp eq ptr %8, null
  br i1 %9, label %67, label %.preheader

.preheader:                                       ; preds = %2
  %10 = getelementptr i8, ptr %0, i64 32
  %11 = getelementptr inbounds nuw i8, ptr %0, i64 24
  %12 = load i32, ptr %11, align 8
  %13 = icmp sgt i32 %12, 0
  br i1 %13, label %.lr.ph, label %.critedge

.lr.ph:                                           ; preds = %.preheader, %39
  %14 = phi i32 [ %40, %39 ], [ %12, %.preheader ]
  %indvars.iv = phi i64 [ %indvars.iv.next, %39 ], [ 0, %.preheader ]
  %.val = load ptr, ptr %10, align 8
  %.not38 = icmp eq ptr %.val, null
  br i1 %.not38, label %.critedge, label %15

15:                                               ; preds = %.lr.ph
  %16 = getelementptr inbounds nuw %struct.Gia_Obj_t_, ptr %.val, i64 %indvars.iv
  %.val42 = load i64, ptr %16, align 4
  %17 = and i64 %.val42, 2147483648
  %.not.i = icmp ne i64 %17, 0
  %18 = and i64 %.val42, 536870911
  %19 = icmp eq i64 %18, 536870911
  %narrow.i.not = or i1 %.not.i, %19
  br i1 %narrow.i.not, label %39, label %20

20:                                               ; preds = %15
  %21 = trunc i64 %.val42 to i32
  %22 = and i32 %21, 536870911
  %23 = trunc nuw nsw i64 %indvars.iv to i32
  %24 = sub nsw i32 %23, %22
  %25 = lshr i32 %21, 29
  %26 = and i32 %25, 1
  %27 = shl nsw i32 %24, 1
  %28 = or disjoint i32 %27, %26
  %29 = lshr i64 %.val42, 32
  %30 = trunc nuw i64 %29 to i32
  %31 = and i32 %30, 536870911
  %32 = sub nsw i32 %23, %31
  %33 = lshr i64 %.val42, 61
  %34 = trunc nuw nsw i64 %33 to i32
  %35 = and i32 %34, 1
  %36 = shl nsw i32 %32, 1
  %37 = or disjoint i32 %36, %35
  %38 = tail call i32 (ptr, ptr, ...) @fprintf(ptr noundef nonnull %8, ptr noundef nonnull @.str.66, i32 noundef %28, i32 noundef %37) #36
  %.pre = load i32, ptr %11, align 8
  br label %39

39:                                               ; preds = %20, %15
  %40 = phi i32 [ %.pre, %20 ], [ %14, %15 ]
  %indvars.iv.next = add nuw nsw i64 %indvars.iv, 1
  %41 = sext i32 %40 to i64
  %42 = icmp slt i64 %indvars.iv.next, %41
  br i1 %42, label %.lr.ph, label %.critedge, !llvm.loop !159

.critedge:                                        ; preds = %.lr.ph, %39, %.preheader
  %43 = getelementptr inbounds nuw i8, ptr %0, i64 72
  %44 = load ptr, ptr %43, align 8
  %45 = getelementptr i8, ptr %44, i64 4
  %.val4353 = load i32, ptr %45, align 4
  %46 = icmp sgt i32 %.val4353, 0
  br i1 %46, label %.lr.ph55, label %.critedge2

.lr.ph55:                                         ; preds = %.critedge, %48
  %indvars.iv58 = phi i64 [ %indvars.iv.next59, %48 ], [ 0, %.critedge ]
  %47 = phi ptr [ %62, %48 ], [ %44, %.critedge ]
  %.val44 = load ptr, ptr %10, align 8
  %.not39 = icmp eq ptr %.val44, null
  br i1 %.not39, label %.critedge2, label %48

48:                                               ; preds = %.lr.ph55
  %49 = getelementptr i8, ptr %47, i64 8
  %.val45.val = load ptr, ptr %49, align 8
  %50 = getelementptr inbounds nuw i32, ptr %.val45.val, i64 %indvars.iv58
  %51 = load i32, ptr %50, align 4
  %52 = sext i32 %51 to i64
  %53 = getelementptr inbounds %struct.Gia_Obj_t_, ptr %.val44, i64 %52
  %.val3.i.i = load i64, ptr %53, align 4
  %54 = trunc i64 %.val3.i.i to i32
  %55 = and i32 %54, 536870911
  %56 = sub nsw i32 %51, %55
  %57 = lshr i32 %54, 29
  %58 = and i32 %57, 1
  %59 = shl nsw i32 %56, 1
  %60 = or disjoint i32 %59, %58
  %61 = tail call i32 (ptr, ptr, ...) @fprintf(ptr noundef nonnull %8, ptr noundef nonnull @.str.66, i32 noundef %60, i32 noundef %60) #36
  %indvars.iv.next59 = add nuw nsw i64 %indvars.iv58, 1
  %62 = load ptr, ptr %43, align 8
  %63 = getelementptr i8, ptr %62, i64 4
  %.val43 = load i32, ptr %63, align 4
  %64 = sext i32 %.val43 to i64
  %65 = icmp slt i64 %indvars.iv.next59, %64
  br i1 %65, label %.lr.ph55, label %.critedge2, !llvm.loop !160

.critedge2:                                       ; preds = %.lr.ph55, %48, %.critedge
  %66 = tail call i32 @fclose(ptr noundef nonnull %8)
  br label %67

67:                                               ; preds = %2, %.critedge2
  %.str.67.sink = phi ptr [ @.str.67, %.critedge2 ], [ @.str.65, %2 ]
  %68 = tail call i32 (ptr, ...) @printf(ptr noundef nonnull dereferenceable(1) %.str.67.sink, ptr noundef nonnull %6)
  tail call void @free(ptr noundef nonnull %6) #36
  ret void
}